target datalayout = "e-m:e-p270:32:32-p271:32:32-p272:64:64-i64:64-i128:128-f80:128-n8:16:32:64-S128"
target triple = "x86_64-pc-linux-gnu"

%struct.__loadu_ps = type { <4 x float> }
%struct.__storeu_ps = type { <4 x float> }
%struct.stbir__contributors = type { i32, i32 }
%struct.__mm_storel_epi64_struct = type { i64 }
%struct.__mm_load_ss_struct = type { float }
%struct.__mm_store_ss_struct = type { float }

; Function Attrs: alwaysinline nounwind uwtable
define available_externally void @_mm_store_ss(ptr noundef %0, <4 x float> noundef %1) #2 {
  %3 = alloca ptr, align 8
  %4 = alloca <4 x float>, align 16
  store ptr %0, ptr %3, align 8, !tbaa !21
  store <4 x float> %1, ptr %4, align 16, !tbaa !12
  %5 = load <4 x float>, ptr %4, align 16, !tbaa !12
  %6 = extractelement <4 x float> %5, i32 0
  %7 = load ptr, ptr %3, align 8, !tbaa !21
  %8 = getelementptr inbounds nuw %struct.__mm_store_ss_struct, ptr %7, i32 0, i32 0
  store float %6, ptr %8, align 1, !tbaa !12
  ret void
}

; Function Attrs: alwaysinline nounwind uwtable
define available_externally void @_mm_storel_epi64(ptr noundef %0, <2 x i64> noundef %1) #2 {
  %3 = alloca ptr, align 8
  %4 = alloca <2 x i64>, align 16
  store ptr %0, ptr %3, align 8, !tbaa !3
  store <2 x i64> %1, ptr %4, align 16, !tbaa !12
  %5 = load <2 x i64>, ptr %4, align 16, !tbaa !12
  %6 = extractelement <2 x i64> %5, i32 0
  %7 = load ptr, ptr %3, align 8, !tbaa !3
  %8 = getelementptr inbounds nuw %struct.__mm_storel_epi64_struct, ptr %7, i32 0, i32 0
  store i64 %6, ptr %8, align 1, !tbaa !12
  ret void
}

; Function Attrs: alwaysinline nounwind uwtable
define available_externally void @_mm_storeu_ps(ptr noundef %0, <4 x float> noundef %1) #2 {
  %3 = alloca ptr, align 8
  %4 = alloca <4 x float>, align 16
  store ptr %0, ptr %3, align 8, !tbaa !21
  store <4 x float> %1, ptr %4, align 16, !tbaa !12
  %5 = load <4 x float>, ptr %4, align 16, !tbaa !12
  %6 = load ptr, ptr %3, align 8, !tbaa !21
  %7 = getelementptr inbounds nuw %struct.__storeu_ps, ptr %6, i32 0, i32 0
  store <4 x float> %5, ptr %7, align 1, !tbaa !12
  ret void
}

; Function Attrs: alwaysinline nounwind uwtable
define available_externally <4 x float> @_mm_load_ss(ptr noundef %0) #2 {
  %2 = alloca ptr, align 8
  %3 = alloca float, align 4
  %4 = alloca <4 x float>, align 16
  store ptr %0, ptr %2, align 8, !tbaa !21
  call void @llvm.lifetime.start.p0(i64 4, ptr %3) #12
  %5 = load ptr, ptr %2, align 8, !tbaa !21
  %6 = getelementptr inbounds nuw %struct.__mm_load_ss_struct, ptr %5, i32 0, i32 0
  %7 = load float, ptr %6, align 1, !tbaa !12
  store float %7, ptr %3, align 4, !tbaa !29
  %8 = load float, ptr %3, align 4, !tbaa !29
  %9 = insertelement <4 x float> poison, float %8, i32 0
  %10 = insertelement <4 x float> %9, float 0.000000e+00, i32 1
  %11 = insertelement <4 x float> %10, float 0.000000e+00, i32 2
  %12 = insertelement <4 x float> %11, float 0.000000e+00, i32 3
  store <4 x float> %12, ptr %4, align 16, !tbaa !12
  %13 = load <4 x float>, ptr %4, align 16, !tbaa !12
  call void @llvm.lifetime.end.p0(i64 4, ptr %3) #12
  ret <4 x float> %13
}

; Function Attrs: alwaysinline nounwind uwtable
define available_externally <4 x float> @_mm_add_ps(<4 x float> noundef %0, <4 x float> noundef %1) #2 {
  %3 = alloca <4 x float>, align 16
  %4 = alloca <4 x float>, align 16
  store <4 x float> %0, ptr %3, align 16, !tbaa !12
  store <4 x float> %1, ptr %4, align 16, !tbaa !12
  %5 = load <4 x float>, ptr %3, align 16, !tbaa !12
  %6 = load <4 x float>, ptr %4, align 16, !tbaa !12
  %7 = fadd <4 x float> %5, %6
  ret <4 x float> %7
}

; Function Attrs: alwaysinline nounwind uwtable
define available_externally <4 x float> @_mm_mul_ps(<4 x float> noundef %0, <4 x float> noundef %1) #2 {
  %3 = alloca <4 x float>, align 16
  %4 = alloca <4 x float>, align 16
  store <4 x float> %0, ptr %3, align 16, !tbaa !12
  store <4 x float> %1, ptr %4, align 16, !tbaa !12
  %5 = load <4 x float>, ptr %3, align 16, !tbaa !12
  %6 = load <4 x float>, ptr %4, align 16, !tbaa !12
  %7 = fmul <4 x float> %5, %6
  ret <4 x float> %7
}

; Function Attrs: alwaysinline nounwind uwtable
define available_externally <4 x float> @_mm_castsi128_ps(<2 x i64> noundef %0) #2 {
  %2 = alloca <2 x i64>, align 16
  store <2 x i64> %0, ptr %2, align 16, !tbaa !12
  %3 = load <2 x i64>, ptr %2, align 16, !tbaa !12
  %4 = bitcast <2 x i64> %3 to <4 x float>
  ret <4 x float> %4
}

; Function Attrs: alwaysinline nounwind uwtable
define available_externally <2 x i64> @_mm_castps_si128(<4 x float> noundef %0) #2 {
  %2 = alloca <4 x float>, align 16
  store <4 x float> %0, ptr %2, align 16, !tbaa !12
  %3 = load <4 x float>, ptr %2, align 16, !tbaa !12
  %4 = bitcast <4 x float> %3 to <2 x i64>
  ret <2 x i64> %4
}

; Function Attrs: alwaysinline nounwind uwtable
define available_externally <4 x float> @_mm_loadu_ps(ptr noundef %0) #2 {
  %2 = alloca ptr, align 8
  store ptr %0, ptr %2, align 8, !tbaa !21
  %3 = load ptr, ptr %2, align 8, !tbaa !21
  %4 = getelementptr inbounds nuw %struct.__loadu_ps, ptr %3, i32 0, i32 0
  %5 = load <4 x float>, ptr %4, align 1, !tbaa !12
  ret <4 x float> %5
}

; Function Attrs: nounwind uwtable
define void @stbir__horizontal_gather_3_channels_with_n_coeffs_mod1(ptr noundef %0, i32 noundef %1, ptr noundef %2, ptr noundef %3, ptr noundef %4, i32 noundef %5) #0 {
  %7 = alloca ptr, align 8
  %8 = alloca i32, align 4
  %9 = alloca ptr, align 8
  %10 = alloca ptr, align 8
  %11 = alloca ptr, align 8
  %12 = alloca i32, align 4
  %13 = alloca ptr, align 8
  %14 = alloca ptr, align 8
  %15 = alloca ptr, align 8
  %16 = alloca i32, align 4
  %17 = alloca ptr, align 8
  %18 = alloca <4 x float>, align 16
  %19 = alloca <4 x float>, align 16
  %20 = alloca <4 x float>, align 16
  %21 = alloca <4 x float>, align 16
  %22 = alloca <4 x float>, align 16
  %23 = alloca i32, align 4
  store ptr %0, ptr %7, align 8, !tbaa !21
  store i32 %1, ptr %8, align 4, !tbaa !26
  store ptr %2, ptr %9, align 8, !tbaa !21
  store ptr %3, ptr %10, align 8, !tbaa !3
  store ptr %4, ptr %11, align 8, !tbaa !21
  store i32 %5, ptr %12, align 4, !tbaa !26
  call void @llvm.lifetime.start.p0(i64 8, ptr %13) #12
  %24 = load ptr, ptr %7, align 8, !tbaa !21
  %25 = load i32, ptr %8, align 4, !tbaa !26
  %26 = mul i32 %25, 3
  %27 = zext i32 %26 to i64
  %28 = getelementptr inbounds nuw float, ptr %24, i64 %27
  store ptr %28, ptr %13, align 8, !tbaa !21
  call void @llvm.lifetime.start.p0(i64 8, ptr %14) #12
  %29 = load ptr, ptr %7, align 8, !tbaa !21
  store ptr %29, ptr %14, align 8, !tbaa !21
  br label %30

30:                                               ; preds = %221, %6
  call void @llvm.lifetime.start.p0(i64 8, ptr %15) #12
  %31 = load ptr, ptr %9, align 8, !tbaa !21
  %32 = load ptr, ptr %10, align 8, !tbaa !3
  %33 = getelementptr inbounds nuw %struct.stbir__contributors, ptr %32, i32 0, i32 0
  %34 = load i32, ptr %33, align 4, !tbaa !41
  %35 = mul nsw i32 %34, 3
  %36 = sext i32 %35 to i64
  %37 = getelementptr inbounds float, ptr %31, i64 %36
  store ptr %37, ptr %15, align 8, !tbaa !21
  call void @llvm.lifetime.start.p0(i64 4, ptr %16) #12
  %38 = load ptr, ptr %10, align 8, !tbaa !3
  %39 = getelementptr inbounds nuw %struct.stbir__contributors, ptr %38, i32 0, i32 1
  %40 = load i32, ptr %39, align 4, !tbaa !44
  %41 = load ptr, ptr %10, align 8, !tbaa !3
  %42 = getelementptr inbounds nuw %struct.stbir__contributors, ptr %41, i32 0, i32 0
  %43 = load i32, ptr %42, align 4, !tbaa !41
  %44 = sub nsw i32 %40, %43
  %45 = add nsw i32 %44, 1
  %46 = sub nsw i32 %45, 5
  %47 = add nsw i32 %46, 3
  %48 = ashr i32 %47, 2
  store i32 %48, ptr %16, align 4, !tbaa !26
  call void @llvm.lifetime.start.p0(i64 8, ptr %17) #12
  %49 = load ptr, ptr %11, align 8, !tbaa !21
  store ptr %49, ptr %17, align 8, !tbaa !21
  call void @llvm.lifetime.start.p0(i64 16, ptr %18) #12
  call void @llvm.lifetime.start.p0(i64 16, ptr %19) #12
  call void @llvm.lifetime.start.p0(i64 16, ptr %20) #12
  call void @llvm.lifetime.start.p0(i64 16, ptr %21) #12
  call void @llvm.lifetime.start.p0(i64 16, ptr %22) #12
  %50 = load ptr, ptr %15, align 8, !tbaa !21
  call void asm sideeffect "", "r,~{dirflag},~{fpsr},~{flags}"(ptr %50) #12, !srcloc !671
  %51 = load ptr, ptr %17, align 8, !tbaa !21
  %52 = call <4 x float> @_mm_loadu_ps(ptr noundef %51)
  store <4 x float> %52, ptr %22, align 16, !tbaa !12
  %53 = load <4 x float>, ptr %22, align 16, !tbaa !12
  %54 = call <2 x i64> @_mm_castps_si128(<4 x float> noundef %53)
  %55 = bitcast <2 x i64> %54 to <4 x i32>
  %56 = shufflevector <4 x i32> %55, <4 x i32> poison, <4 x i32> <i32 0, i32 0, i32 0, i32 1>
  %57 = bitcast <4 x i32> %56 to <2 x i64>
  %58 = call <4 x float> @_mm_castsi128_ps(<2 x i64> noundef %57)
  store <4 x float> %58, ptr %21, align 16, !tbaa !12
  %59 = load <4 x float>, ptr %21, align 16, !tbaa !12
  %60 = load ptr, ptr %15, align 8, !tbaa !21
  %61 = call <4 x float> @_mm_loadu_ps(ptr noundef %60)
  %62 = call <4 x float> @_mm_mul_ps(<4 x float> noundef %59, <4 x float> noundef %61)
  store <4 x float> %62, ptr %18, align 16, !tbaa !12
  %63 = load <4 x float>, ptr %22, align 16, !tbaa !12
  %64 = call <2 x i64> @_mm_castps_si128(<4 x float> noundef %63)
  %65 = bitcast <2 x i64> %64 to <4 x i32>
  %66 = shufflevector <4 x i32> %65, <4 x i32> poison, <4 x i32> <i32 1, i32 1, i32 2, i32 2>
  %67 = bitcast <4 x i32> %66 to <2 x i64>
  %68 = call <4 x float> @_mm_castsi128_ps(<2 x i64> noundef %67)
  store <4 x float> %68, ptr %21, align 16, !tbaa !12
  %69 = load <4 x float>, ptr %21, align 16, !tbaa !12
  %70 = load ptr, ptr %15, align 8, !tbaa !21
  %71 = getelementptr inbounds float, ptr %70, i64 4
  %72 = call <4 x float> @_mm_loadu_ps(ptr noundef %71)
  %73 = call <4 x float> @_mm_mul_ps(<4 x float> noundef %69, <4 x float> noundef %72)
  store <4 x float> %73, ptr %19, align 16, !tbaa !12
  %74 = load <4 x float>, ptr %22, align 16, !tbaa !12
  %75 = call <2 x i64> @_mm_castps_si128(<4 x float> noundef %74)
  %76 = bitcast <2 x i64> %75 to <4 x i32>
  %77 = shufflevector <4 x i32> %76, <4 x i32> poison, <4 x i32> <i32 2, i32 3, i32 3, i32 3>
  %78 = bitcast <4 x i32> %77 to <2 x i64>
  %79 = call <4 x float> @_mm_castsi128_ps(<2 x i64> noundef %78)
  store <4 x float> %79, ptr %21, align 16, !tbaa !12
  %80 = load <4 x float>, ptr %21, align 16, !tbaa !12
  %81 = load ptr, ptr %15, align 8, !tbaa !21
  %82 = getelementptr inbounds float, ptr %81, i64 8
  %83 = call <4 x float> @_mm_loadu_ps(ptr noundef %82)
  %84 = call <4 x float> @_mm_mul_ps(<4 x float> noundef %80, <4 x float> noundef %83)
  store <4 x float> %84, ptr %20, align 16, !tbaa !12
  br label %85

85:                                               ; preds = %137, %30
  %86 = load ptr, ptr %17, align 8, !tbaa !21
  %87 = getelementptr inbounds float, ptr %86, i64 4
  store ptr %87, ptr %17, align 8, !tbaa !21
  %88 = load ptr, ptr %15, align 8, !tbaa !21
  %89 = getelementptr inbounds float, ptr %88, i64 12
  store ptr %89, ptr %15, align 8, !tbaa !21
  %90 = load ptr, ptr %15, align 8, !tbaa !21
  call void asm sideeffect "", "r,~{dirflag},~{fpsr},~{flags}"(ptr %90) #12, !srcloc !672
  %91 = load ptr, ptr %17, align 8, !tbaa !21
  %92 = getelementptr inbounds float, ptr %91, i64 0
  %93 = call <4 x float> @_mm_loadu_ps(ptr noundef %92)
  store <4 x float> %93, ptr %22, align 16, !tbaa !12
  %94 = load <4 x float>, ptr %22, align 16, !tbaa !12
  %95 = call <2 x i64> @_mm_castps_si128(<4 x float> noundef %94)
  %96 = bitcast <2 x i64> %95 to <4 x i32>
  %97 = shufflevector <4 x i32> %96, <4 x i32> poison, <4 x i32> <i32 0, i32 0, i32 0, i32 1>
  %98 = bitcast <4 x i32> %97 to <2 x i64>
  %99 = call <4 x float> @_mm_castsi128_ps(<2 x i64> noundef %98)
  store <4 x float> %99, ptr %21, align 16, !tbaa !12
  %100 = load <4 x float>, ptr %18, align 16, !tbaa !12
  %101 = load <4 x float>, ptr %21, align 16, !tbaa !12
  %102 = load ptr, ptr %15, align 8, !tbaa !21
  %103 = getelementptr inbounds float, ptr %102, i64 0
  %104 = call <4 x float> @_mm_loadu_ps(ptr noundef %103)
  %105 = call <4 x float> @_mm_mul_ps(<4 x float> noundef %101, <4 x float> noundef %104)
  %106 = call <4 x float> @_mm_add_ps(<4 x float> noundef %100, <4 x float> noundef %105)
  store <4 x float> %106, ptr %18, align 16, !tbaa !12
  %107 = load <4 x float>, ptr %22, align 16, !tbaa !12
  %108 = call <2 x i64> @_mm_castps_si128(<4 x float> noundef %107)
  %109 = bitcast <2 x i64> %108 to <4 x i32>
  %110 = shufflevector <4 x i32> %109, <4 x i32> poison, <4 x i32> <i32 1, i32 1, i32 2, i32 2>
  %111 = bitcast <4 x i32> %110 to <2 x i64>
  %112 = call <4 x float> @_mm_castsi128_ps(<2 x i64> noundef %111)
  store <4 x float> %112, ptr %21, align 16, !tbaa !12
  %113 = load <4 x float>, ptr %19, align 16, !tbaa !12
  %114 = load <4 x float>, ptr %21, align 16, !tbaa !12
  %115 = load ptr, ptr %15, align 8, !tbaa !21
  %116 = getelementptr inbounds float, ptr %115, i64 0
  %117 = getelementptr inbounds float, ptr %116, i64 4
  %118 = call <4 x float> @_mm_loadu_ps(ptr noundef %117)
  %119 = call <4 x float> @_mm_mul_ps(<4 x float> noundef %114, <4 x float> noundef %118)
  %120 = call <4 x float> @_mm_add_ps(<4 x float> noundef %113, <4 x float> noundef %119)
  store <4 x float> %120, ptr %19, align 16, !tbaa !12
  %121 = load <4 x float>, ptr %22, align 16, !tbaa !12
  %122 = call <2 x i64> @_mm_castps_si128(<4 x float> noundef %121)
  %123 = bitcast <2 x i64> %122 to <4 x i32>
  %124 = shufflevector <4 x i32> %123, <4 x i32> poison, <4 x i32> <i32 2, i32 3, i32 3, i32 3>
  %125 = bitcast <4 x i32> %124 to <2 x i64>
  %126 = call <4 x float> @_mm_castsi128_ps(<2 x i64> noundef %125)
  store <4 x float> %126, ptr %21, align 16, !tbaa !12
  %127 = load <4 x float>, ptr %20, align 16, !tbaa !12
  %128 = load <4 x float>, ptr %21, align 16, !tbaa !12
  %129 = load ptr, ptr %15, align 8, !tbaa !21
  %130 = getelementptr inbounds float, ptr %129, i64 0
  %131 = getelementptr inbounds float, ptr %130, i64 8
  %132 = call <4 x float> @_mm_loadu_ps(ptr noundef %131)
  %133 = call <4 x float> @_mm_mul_ps(<4 x float> noundef %128, <4 x float> noundef %132)
  %134 = call <4 x float> @_mm_add_ps(<4 x float> noundef %127, <4 x float> noundef %133)
  store <4 x float> %134, ptr %20, align 16, !tbaa !12
  %135 = load i32, ptr %16, align 4, !tbaa !26
  %136 = add nsw i32 %135, -1
  store i32 %136, ptr %16, align 4, !tbaa !26
  br label %137

137:                                              ; preds = %85
  %138 = load i32, ptr %16, align 4, !tbaa !26
  %139 = icmp sgt i32 %138, 0
  br i1 %139, label %85, label %140, !llvm.loop !673

140:                                              ; preds = %137
  %141 = load ptr, ptr %15, align 8, !tbaa !21
  call void asm sideeffect "", "r,~{dirflag},~{fpsr},~{flags}"(ptr %141) #12, !srcloc !674
  %142 = load ptr, ptr %17, align 8, !tbaa !21
  %143 = getelementptr inbounds float, ptr %142, i64 4
  %144 = call <4 x float> @_mm_load_ss(ptr noundef %143)
  store <4 x float> %144, ptr %21, align 16, !tbaa !12
  %145 = load <4 x float>, ptr %21, align 16, !tbaa !12
  %146 = call <2 x i64> @_mm_castps_si128(<4 x float> noundef %145)
  %147 = bitcast <2 x i64> %146 to <4 x i32>
  %148 = shufflevector <4 x i32> %147, <4 x i32> poison, <4 x i32> <i32 0, i32 0, i32 0, i32 1>
  %149 = bitcast <4 x i32> %148 to <2 x i64>
  %150 = call <4 x float> @_mm_castsi128_ps(<2 x i64> noundef %149)
  store <4 x float> %150, ptr %21, align 16, !tbaa !12
  %151 = load <4 x float>, ptr %18, align 16, !tbaa !12
  %152 = load <4 x float>, ptr %21, align 16, !tbaa !12
  %153 = load ptr, ptr %15, align 8, !tbaa !21
  %154 = getelementptr inbounds float, ptr %153, i64 12
  %155 = call <4 x float> @_mm_loadu_ps(ptr noundef %154)
  %156 = call <4 x float> @_mm_mul_ps(<4 x float> noundef %152, <4 x float> noundef %155)
  %157 = call <4 x float> @_mm_add_ps(<4 x float> noundef %151, <4 x float> noundef %156)
  store <4 x float> %157, ptr %18, align 16, !tbaa !12
  %158 = load <4 x float>, ptr %19, align 16, !tbaa !12
  %159 = load <4 x float>, ptr %18, align 16, !tbaa !12
  %160 = shufflevector <4 x float> %158, <4 x float> %159, <4 x i32> <i32 0, i32 1, i32 6, i32 7>
  %161 = call <2 x i64> @_mm_castps_si128(<4 x float> noundef %160)
  %162 = bitcast <2 x i64> %161 to <4 x i32>
  %163 = shufflevector <4 x i32> %162, <4 x i32> poison, <4 x i32> <i32 3, i32 0, i32 1, i32 2>
  %164 = bitcast <4 x i32> %163 to <2 x i64>
  %165 = call <4 x float> @_mm_castsi128_ps(<2 x i64> noundef %164)
  store <4 x float> %165, ptr %21, align 16, !tbaa !12
  %166 = load <4 x float>, ptr %20, align 16, !tbaa !12
  %167 = load <4 x float>, ptr %19, align 16, !tbaa !12
  %168 = shufflevector <4 x float> %166, <4 x float> %167, <4 x i32> <i32 0, i32 1, i32 6, i32 7>
  %169 = call <2 x i64> @_mm_castps_si128(<4 x float> noundef %168)
  %170 = bitcast <2 x i64> %169 to <4 x i32>
  %171 = shufflevector <4 x i32> %170, <4 x i32> poison, <4 x i32> <i32 2, i32 3, i32 0, i32 1>
  %172 = bitcast <4 x i32> %171 to <2 x i64>
  %173 = call <4 x float> @_mm_castsi128_ps(<2 x i64> noundef %172)
  store <4 x float> %173, ptr %22, align 16, !tbaa !12
  %174 = load <4 x float>, ptr %20, align 16, !tbaa !12
  %175 = call <2 x i64> @_mm_castps_si128(<4 x float> noundef %174)
  %176 = bitcast <2 x i64> %175 to <4 x i32>
  %177 = shufflevector <4 x i32> %176, <4 x i32> poison, <4 x i32> <i32 1, i32 2, i32 3, i32 0>
  %178 = bitcast <4 x i32> %177 to <2 x i64>
  %179 = call <4 x float> @_mm_castsi128_ps(<2 x i64> noundef %178)
  store <4 x float> %179, ptr %20, align 16, !tbaa !12
  %180 = load <4 x float>, ptr %18, align 16, !tbaa !12
  %181 = load <4 x float>, ptr %22, align 16, !tbaa !12
  %182 = call <4 x float> @_mm_add_ps(<4 x float> noundef %180, <4 x float> noundef %181)
  store <4 x float> %182, ptr %18, align 16, !tbaa !12
  %183 = load <4 x float>, ptr %21, align 16, !tbaa !12
  %184 = load <4 x float>, ptr %20, align 16, !tbaa !12
  %185 = call <4 x float> @_mm_add_ps(<4 x float> noundef %183, <4 x float> noundef %184)
  store <4 x float> %185, ptr %21, align 16, !tbaa !12
  %186 = load <4 x float>, ptr %18, align 16, !tbaa !12
  %187 = load <4 x float>, ptr %21, align 16, !tbaa !12
  %188 = call <4 x float> @_mm_add_ps(<4 x float> noundef %186, <4 x float> noundef %187)
  store <4 x float> %188, ptr %18, align 16, !tbaa !12
  %189 = load i32, ptr %12, align 4, !tbaa !26
  %190 = load ptr, ptr %11, align 8, !tbaa !21
  %191 = sext i32 %189 to i64
  %192 = getelementptr inbounds float, ptr %190, i64 %191
  store ptr %192, ptr %11, align 8, !tbaa !21
  %193 = load ptr, ptr %10, align 8, !tbaa !3
  %194 = getelementptr inbounds nuw %struct.stbir__contributors, ptr %193, i32 1
  store ptr %194, ptr %10, align 8, !tbaa !3
  %195 = load ptr, ptr %14, align 8, !tbaa !21
  %196 = getelementptr inbounds float, ptr %195, i64 3
  store ptr %196, ptr %14, align 8, !tbaa !21
  %197 = load ptr, ptr %14, align 8, !tbaa !21
  %198 = load ptr, ptr %13, align 8, !tbaa !21
  %199 = icmp ult ptr %197, %198
  br i1 %199, label %200, label %204

200:                                              ; preds = %140
  %201 = load ptr, ptr %14, align 8, !tbaa !21
  %202 = getelementptr inbounds float, ptr %201, i64 -3
  %203 = load <4 x float>, ptr %18, align 16, !tbaa !12
  call void @_mm_storeu_ps(ptr noundef %202, <4 x float> noundef %203)
  store i32 3, ptr %23, align 4
  br label %219

204:                                              ; preds = %140
  %205 = load <4 x float>, ptr %18, align 16, !tbaa !12
  %206 = call <2 x i64> @_mm_castps_si128(<4 x float> noundef %205)
  %207 = bitcast <2 x i64> %206 to <4 x i32>
  %208 = shufflevector <4 x i32> %207, <4 x i32> poison, <4 x i32> <i32 2, i32 3, i32 0, i32 1>
  %209 = bitcast <4 x i32> %208 to <2 x i64>
  %210 = call <4 x float> @_mm_castsi128_ps(<2 x i64> noundef %209)
  store <4 x float> %210, ptr %19, align 16, !tbaa !12
  %211 = load ptr, ptr %14, align 8, !tbaa !21
  %212 = getelementptr inbounds float, ptr %211, i64 -3
  %213 = load <4 x float>, ptr %18, align 16, !tbaa !12
  %214 = call <2 x i64> @_mm_castps_si128(<4 x float> noundef %213)
  call void @_mm_storel_epi64(ptr noundef %212, <2 x i64> noundef %214)
  %215 = load ptr, ptr %14, align 8, !tbaa !21
  %216 = getelementptr inbounds float, ptr %215, i64 2
  %217 = getelementptr inbounds float, ptr %216, i64 -3
  %218 = load <4 x float>, ptr %19, align 16, !tbaa !12
  call void @_mm_store_ss(ptr noundef %217, <4 x float> noundef %218)
  store i32 2, ptr %23, align 4
  br label %219

219:                                              ; preds = %204, %200
  call void @llvm.lifetime.end.p0(i64 16, ptr %22) #12
  call void @llvm.lifetime.end.p0(i64 16, ptr %21) #12
  call void @llvm.lifetime.end.p0(i64 16, ptr %20) #12
  call void @llvm.lifetime.end.p0(i64 16, ptr %19) #12
  call void @llvm.lifetime.end.p0(i64 16, ptr %18) #12
  call void @llvm.lifetime.end.p0(i64 8, ptr %17) #12
  call void @llvm.lifetime.end.p0(i64 4, ptr %16) #12
  call void @llvm.lifetime.end.p0(i64 8, ptr %15) #12
  %220 = load i32, ptr %23, align 4
  switch i32 %220, label %226 [
    i32 3, label %221
    i32 2, label %225
  ]

221:                                              ; preds = %219
  %222 = load ptr, ptr %14, align 8, !tbaa !21
  %223 = load ptr, ptr %13, align 8, !tbaa !21
  %224 = icmp ult ptr %222, %223
  br i1 %224, label %30, label %225, !llvm.loop !675

225:                                              ; preds = %221, %219
  call void @llvm.lifetime.end.p0(i64 8, ptr %14) #12
  call void @llvm.lifetime.end.p0(i64 8, ptr %13) #12
  ret void

226:                                              ; preds = %219
  unreachable
}