; Function Attrs: nounwind uwtable
define void @stbir__horizontal_gather_3_channels_with_n_coeffs_mod1(ptr noundef writeonly captures(address) %0, i32 noundef %1, ptr noundef %2, ptr noundef readonly captures(none) %3, ptr noundef readonly captures(none) %4, i32 noundef %5) #0 {
  %7 = mul i32 %1, 3
  %8 = zext i32 %7 to i64
  %9 = getelementptr inbounds nuw float, ptr %0, i64 %8
  %10 = sext i32 %5 to i64
  br label %11

11:                                               ; preds = %74, %6
  %.077 = phi ptr [ %4, %6 ], [ %76, %74 ]
  %.076 = phi ptr [ %3, %6 ], [ %75, %74 ]
  %.075 = phi ptr [ %0, %6 ], [ %68, %74 ]
  %12 = load i32, ptr %.076, align 4, !tbaa !34
  %13 = mul nsw i32 %12, 3
  %14 = sext i32 %13 to i64
  %15 = getelementptr inbounds float, ptr %2, i64 %14
  %16 = getelementptr inbounds nuw i8, ptr %.076, i64 4
  %17 = load i32, ptr %16, align 4, !tbaa !37
  %18 = xor i32 %12, -1
  %19 = add i32 %17, %18
  %20 = ashr i32 %19, 2
  tail call void asm sideeffect "", "r,~{dirflag},~{fpsr},~{flags}"(ptr %15) #24, !srcloc !585
  %21 = load <4 x float>, ptr %.077, align 1, !tbaa !4
  %22 = shufflevector <4 x float> %21, <4 x float> poison, <4 x i32> <i32 0, i32 0, i32 0, i32 1>
  %23 = load <4 x float>, ptr %15, align 1, !tbaa !4
  %24 = fmul <4 x float> %23, %22
  %25 = shufflevector <4 x float> %21, <4 x float> poison, <4 x i32> <i32 1, i32 1, i32 2, i32 2>
  %26 = getelementptr inbounds nuw i8, ptr %15, i64 16
  %27 = load <4 x float>, ptr %26, align 1, !tbaa !4
  %28 = fmul <4 x float> %25, %27
  %29 = shufflevector <4 x float> %21, <4 x float> poison, <4 x i32> <i32 2, i32 3, i32 3, i32 3>
  %30 = getelementptr inbounds nuw i8, ptr %15, i64 32
  %31 = load <4 x float>, ptr %30, align 1, !tbaa !4
  %32 = fmul <4 x float> %29, %31
  br label %33

33:                                               ; preds = %33, %11
  %.074 = phi ptr [ %15, %11 ], [ %35, %33 ]
  %.073 = phi i32 [ %20, %11 ], [ %51, %33 ]
  %.072 = phi ptr [ %.077, %11 ], [ %34, %33 ]
  %.071 = phi <4 x float> [ %24, %11 ], [ %40, %33 ]
  %.070 = phi <4 x float> [ %28, %11 ], [ %45, %33 ]
  %.069 = phi <4 x float> [ %32, %11 ], [ %50, %33 ]
  %34 = getelementptr inbounds nuw i8, ptr %.072, i64 16
  %35 = getelementptr inbounds nuw i8, ptr %.074, i64 48
  tail call void asm sideeffect "", "r,~{dirflag},~{fpsr},~{flags}"(ptr nonnull %35) #24, !srcloc !586
  %36 = load <4 x float>, ptr %34, align 1, !tbaa !4
  %37 = shufflevector <4 x float> %36, <4 x float> poison, <4 x i32> <i32 0, i32 0, i32 0, i32 1>
  %38 = load <4 x float>, ptr %35, align 1, !tbaa !4
  %39 = fmul <4 x float> %38, %37
  %40 = fadd <4 x float> %.071, %39
  %41 = shufflevector <4 x float> %36, <4 x float> poison, <4 x i32> <i32 1, i32 1, i32 2, i32 2>
  %42 = getelementptr inbounds nuw i8, ptr %.074, i64 64
  %43 = load <4 x float>, ptr %42, align 1, !tbaa !4
  %44 = fmul <4 x float> %41, %43
  %45 = fadd <4 x float> %.070, %44
  %46 = shufflevector <4 x float> %36, <4 x float> poison, <4 x i32> <i32 2, i32 3, i32 3, i32 3>
  %47 = getelementptr inbounds nuw i8, ptr %.074, i64 80
  %48 = load <4 x float>, ptr %47, align 1, !tbaa !4
  %49 = fmul <4 x float> %46, %48
  %50 = fadd <4 x float> %.069, %49
  %51 = add nsw i32 %.073, -1
  %52 = icmp sgt i32 %.073, 1
  br i1 %52, label %33, label %53, !llvm.loop !587

53:                                               ; preds = %33
  tail call void asm sideeffect "", "r,~{dirflag},~{fpsr},~{flags}"(ptr nonnull %35) #24, !srcloc !588
  %54 = getelementptr inbounds nuw i8, ptr %.072, i64 32
  %55 = load float, ptr %54, align 1, !tbaa !4
  %56 = insertelement <4 x float> <float poison, float 0.000000e+00, float poison, float poison>, float %55, i64 0
  %57 = shufflevector <4 x float> %56, <4 x float> poison, <4 x i32> <i32 0, i32 0, i32 0, i32 1>
  %58 = getelementptr inbounds nuw i8, ptr %.074, i64 96
  %59 = load <4 x float>, ptr %58, align 1, !tbaa !4
  %60 = fmul <4 x float> %59, %57
  %61 = fadd <4 x float> %40, %60
  %62 = shufflevector <4 x float> %61, <4 x float> %45, <4 x i32> <i32 3, i32 4, i32 5, i32 2>
  %63 = shufflevector <4 x float> %45, <4 x float> %50, <4 x i32> <i32 2, i32 3, i32 4, i32 5>
  %64 = shufflevector <4 x float> %50, <4 x float> poison, <4 x i32> <i32 1, i32 2, i32 3, i32 0>
  %65 = fadd <4 x float> %63, %61
  %66 = fadd <4 x float> %64, %62
  %67 = fadd <4 x float> %65, %66
  %68 = getelementptr inbounds nuw i8, ptr %.075, i64 12
  %69 = icmp ult ptr %68, %9
  br i1 %69, label %74, label %.thread

.thread:                                          ; preds = %53
  %70 = bitcast <4 x float> %67 to <2 x i64>
  %71 = extractelement <2 x i64> %70, i64 0
  store i64 %71, ptr %.075, align 1, !tbaa !4
  %72 = getelementptr inbounds nuw i8, ptr %.075, i64 8
  %73 = extractelement <4 x float> %67, i64 2
  store float %73, ptr %72, align 1, !tbaa !4
  ret void

74:                                               ; preds = %53
  %75 = getelementptr inbounds nuw i8, ptr %.076, i64 8
  %76 = getelementptr inbounds float, ptr %.077, i64 %10
  store <4 x float> %67, ptr %.075, align 1, !tbaa !4
  br label %11
}